; Function Attrs: mustprogress uwtable
define internal fastcc void @_ZN11OpenImageIO6v3_1_0L5copy_IfsEEbRNS0_8ImageBufERKS2_NS0_3ROIEi(ptr noundef nonnull align 8 dereferenceable(16) %0, ptr noundef nonnull align 8 dereferenceable(16) %1, ptr noundef readonly byval(%"struct.OpenImageIO::v3_1_0::ROI") align 8 captures(none) %2, i32 noundef %3) unnamed_addr #5 personality ptr @__gxx_personality_v0 {
  %5 = alloca %"class.OpenImageIO::v3_1_0::paropt", align 8
  %6 = alloca %"class.std::function", align 8
  store i32 %3, ptr %5, align 8, !tbaa !30
  %7 = getelementptr inbounds nuw i8, ptr %5, i64 4
  store i16 0, ptr %7, align 4, !tbaa !36
  %8 = getelementptr inbounds nuw i8, ptr %5, i64 6
  store i16 1, ptr %8, align 2, !tbaa !37
  %9 = getelementptr inbounds nuw i8, ptr %5, i64 8
  store i64 1024, ptr %9, align 8, !tbaa !38
  %10 = getelementptr inbounds nuw i8, ptr %5, i64 16
  store ptr null, ptr %10, align 8, !tbaa !39
  %11 = getelementptr inbounds nuw i8, ptr %5, i64 24
  store i8 0, ptr %11, align 8, !tbaa !40
  %12 = getelementptr inbounds nuw i8, ptr %6, i64 16
  %13 = getelementptr inbounds nuw i8, ptr %6, i64 24
  store ptr %1, ptr %6, align 8, !tbaa !41
  %.sroa.5.0..sroa_idx = getelementptr inbounds nuw i8, ptr %6, i64 8
  store ptr %0, ptr %.sroa.5.0..sroa_idx, align 8, !tbaa !41
  store ptr @_ZNSt17_Function_handlerIFvN11OpenImageIO6v3_1_03ROIEEZNS1_L5copy_IfsEEbRNS1_8ImageBufERKS5_S2_iEUlS2_E_E9_M_invokeERKSt9_Any_dataOS2_, ptr %13, align 8, !tbaa !46
  store ptr @_ZNSt17_Function_handlerIFvN11OpenImageIO6v3_1_03ROIEEZNS1_L5copy_IfsEEbRNS1_8ImageBufERKS5_S2_iEUlS2_E_E10_M_managerERSt9_Any_dataRKSB_St18_Manager_operation, ptr %12, align 8, !tbaa !49
  invoke void @_ZN11OpenImageIO6v3_1_012ImageBufAlgo14parallel_imageENS0_3ROIENS0_6paroptESt8functionIFvS2_EE(ptr noundef nonnull byval(%"struct.OpenImageIO::v3_1_0::ROI") align 8 %2, ptr noundef nonnull byval(%"class.OpenImageIO::v3_1_0::paropt") align 8 %5, ptr noundef nonnull %6)
          to label %14 unwind label %21

14:                                               ; preds = %4
  %15 = load ptr, ptr %12, align 8, !tbaa !49
  %.not.i = icmp eq ptr %15, null
  br i1 %.not.i, label %_ZNSt14_Function_baseD2Ev.exit, label %16

16:                                               ; preds = %14
  %17 = invoke noundef zeroext i1 %15(ptr noundef nonnull align 8 dereferenceable(32) %6, ptr noundef nonnull align 8 dereferenceable(32) %6, i32 noundef 3)
          to label %_ZNSt14_Function_baseD2Ev.exit unwind label %18

18:                                               ; preds = %16
  %19 = landingpad { ptr, i32 }
          catch ptr null
  %20 = extractvalue { ptr, i32 } %19, 0
  call void @__clang_call_terminate(ptr %20) #31
  unreachable

_ZNSt14_Function_baseD2Ev.exit:                   ; preds = %14, %16
  ret void

21:                                               ; preds = %4
  %22 = landingpad { ptr, i32 }
          cleanup
  %23 = load ptr, ptr %12, align 8, !tbaa !49
  %.not.i4 = icmp eq ptr %23, null
  br i1 %.not.i4, label %_ZNSt14_Function_baseD2Ev.exit5, label %24

24:                                               ; preds = %21
  %25 = invoke noundef zeroext i1 %23(ptr noundef nonnull align 8 dereferenceable(32) %6, ptr noundef nonnull align 8 dereferenceable(32) %6, i32 noundef 3)
          to label %_ZNSt14_Function_baseD2Ev.exit5 unwind label %26

26:                                               ; preds = %24
  %27 = landingpad { ptr, i32 }
          catch ptr null
  %28 = extractvalue { ptr, i32 } %27, 0
  call void @__clang_call_terminate(ptr %28) #31
  unreachable

_ZNSt14_Function_baseD2Ev.exit5:                  ; preds = %21, %24
  resume { ptr, i32 } %22
}